target datalayout = "e-m:e-p270:32:32-p271:32:32-p272:64:64-i64:64-i128:128-f80:128-n8:16:32:64-S128"
target triple = "x86_64-pc-linux-gnu"

%struct.ImVec4 = type { float, float, float, float }
%struct.ImVector = type { i32, i32, ptr }
%struct.ImDrawList = type { %struct.ImVector.0, %struct.ImVector.1, %struct.ImVector.2, i32, i32, ptr, ptr, ptr, %struct.ImVector, %struct.ImDrawCmdHeader, %struct.ImDrawListSplitter, %struct.ImVector.4, %struct.ImVector.5, %struct.ImVector.6, float, ptr }
%struct.ImVector.0 = type { i32, i32, ptr }
%struct.ImVector.1 = type { i32, i32, ptr }
%struct.ImVector.2 = type { i32, i32, ptr }
%struct.ImDrawCmdHeader = type <{ %struct.ImVec4, i64, i32, [4 x i8] }>
%struct.ImDrawListSplitter = type { i32, i32, %struct.ImVector.3 }
%struct.ImVector.3 = type { i32, i32, ptr }
%struct.ImVector.4 = type { i32, i32, ptr }
%struct.ImVector.5 = type { i32, i32, ptr }
%struct.ImVector.6 = type { i32, i32, ptr }

; Function Attrs: inlinehint mustprogress nounwind uwtable
define linkonce_odr void @_ZN8ImVectorIyE8pop_backEv(ptr noundef nonnull align 8 dereferenceable(16) %0) #7 comdat align 2 {
  %2 = alloca ptr, align 8
  store ptr %0, ptr %2, align 8, !tbaa !87
  %3 = load ptr, ptr %2, align 8
  %4 = getelementptr inbounds nuw %struct.ImVector.5, ptr %3, i32 0, i32 0
  %5 = load i32, ptr %4, align 8, !tbaa !90
  %6 = add nsw i32 %5, -1
  store i32 %6, ptr %4, align 8, !tbaa !90
  ret void
}

; Function Attrs: mustprogress uwtable
define void @_ZN10ImDrawList12PopTextureIDEv(ptr noundef nonnull align 8 dereferenceable(216) %0) #6 align 2 {
  %2 = alloca ptr, align 8
  store ptr %0, ptr %2, align 8, !tbaa !43
  %3 = load ptr, ptr %2, align 8
  %4 = getelementptr inbounds nuw %struct.ImDrawList, ptr %3, i32 0, i32 12
  call void @_ZN8ImVectorIyE8pop_backEv(ptr noundef nonnull align 8 dereferenceable(16) %4)
  %5 = getelementptr inbounds nuw %struct.ImDrawList, ptr %3, i32 0, i32 12
  %6 = getelementptr inbounds nuw %struct.ImVector.5, ptr %5, i32 0, i32 0
  %7 = load i32, ptr %6, align 8, !tbaa !152
  %8 = icmp eq i32 %7, 0
  br i1 %8, label %9, label %10

9:                                                ; preds = %1
  br label %21

10:                                               ; preds = %1
  %11 = getelementptr inbounds nuw %struct.ImDrawList, ptr %3, i32 0, i32 12
  %12 = getelementptr inbounds nuw %struct.ImVector.5, ptr %11, i32 0, i32 2
  %13 = load ptr, ptr %12, align 8, !tbaa !153
  %14 = getelementptr inbounds nuw %struct.ImDrawList, ptr %3, i32 0, i32 12
  %15 = getelementptr inbounds nuw %struct.ImVector.5, ptr %14, i32 0, i32 0
  %16 = load i32, ptr %15, align 8, !tbaa !152
  %17 = sub nsw i32 %16, 1
  %18 = sext i32 %17 to i64
  %19 = getelementptr inbounds i64, ptr %13, i64 %18
  %20 = load i64, ptr %19, align 8, !tbaa !150
  br label %21

21:                                               ; preds = %10, %9
  %22 = phi i64 [ 0, %9 ], [ %20, %10 ]
  %23 = getelementptr inbounds nuw %struct.ImDrawList, ptr %3, i32 0, i32 9
  %24 = getelementptr inbounds nuw %struct.ImDrawCmdHeader, ptr %23, i32 0, i32 1
  store i64 %22, ptr %24, align 8, !tbaa !130
  call void @_ZN10ImDrawList19_OnChangedTextureIDEv(ptr noundef nonnull align 8 dereferenceable(216) %3)
  ret void
}