; Function Attrs: mustprogress uwtable
define void @_ZN10ImDrawList12PopTextureIDEv(ptr noundef nonnull align 8 captures(none) dereferenceable(216) initializes((112, 120)) %0) local_unnamed_addr #12 align 2 {
  %2 = getelementptr inbounds nuw i8, ptr %0, i64 168
  %3 = load i32, ptr %2, align 8, !tbaa !63
  %4 = add nsw i32 %3, -1
  store i32 %4, ptr %2, align 8, !tbaa !63
  %5 = icmp eq i32 %4, 0
  br i1 %5, label %13, label %6

6:                                                ; preds = %1
  %7 = getelementptr inbounds nuw i8, ptr %0, i64 176
  %8 = load ptr, ptr %7, align 8, !tbaa !109
  %9 = sext i32 %4 to i64
  %10 = getelementptr i64, ptr %8, i64 %9
  %11 = getelementptr i8, ptr %10, i64 -8
  %12 = load i64, ptr %11, align 8, !tbaa !110
  br label %13

13:                                               ; preds = %1, %6
  %14 = phi i64 [ %12, %6 ], [ 0, %1 ]
  %15 = getelementptr inbounds nuw i8, ptr %0, i64 112
  store i64 %14, ptr %15, align 8, !tbaa !90
  tail call void @_ZN10ImDrawList19_OnChangedTextureIDEv(ptr noundef nonnull align 8 dereferenceable(216) %0)
  ret void
}